; Function Attrs: nounwind uwtable
define internal range(i32 -1, 2) i32 @H5HF__cache_hdr_verify_chksum(ptr noundef %0, i64 noundef %1, ptr readnone captures(none) %2) #0 {
  %4 = alloca i32, align 4
  %5 = alloca i32, align 4
  call void @llvm.lifetime.start.p0(i64 4, ptr nonnull %4) #9
  call void @llvm.lifetime.start.p0(i64 4, ptr nonnull %5) #9
  %6 = load i8, ptr @H5HF_init_g, align 1, !tbaa !3, !range !7, !noundef !8
  %7 = trunc nuw i8 %6 to i1
  %8 = load i8, ptr @H5_libterm_g, align 1, !range !7
  %9 = trunc nuw i8 %8 to i1
  %10 = xor i1 %9, true
  %11 = select i1 %7, i1 true, i1 %10
  br i1 %11, label %12, label %22, !prof !9

12:                                               ; preds = %3
  %13 = call i32 @H5F_get_checksums(ptr noundef %0, i64 noundef %1, ptr noundef nonnull %4, ptr noundef nonnull %5) #9
  %14 = icmp slt i32 %13, 0
  br i1 %14, label %15, label %19

15:                                               ; preds = %12
  %16 = load i64, ptr @H5E_HEAP_g, align 8, !tbaa !14
  %17 = load i64, ptr @H5E_CANTGET_g, align 8, !tbaa !14
  %18 = call i32 (ptr, ptr, i32, i64, i64, ptr, ...) @H5E_printf_stack(ptr noundef nonnull @.str.4, ptr noundef nonnull @__func__.H5HF__cache_hdr_verify_chksum, i32 noundef 422, i64 noundef %16, i64 noundef %17, ptr noundef nonnull @.str.9) #9
  br label %22

19:                                               ; preds = %12
  %20 = load i32, ptr %4, align 4, !tbaa !17
  %21 = load i32, ptr %5, align 4, !tbaa !17
  %.not = icmp eq i32 %20, %21
  %spec.select = zext i1 %.not to i32
  br label %22

22:                                               ; preds = %19, %15, %3
  %.0 = phi i32 [ -1, %15 ], [ 1, %3 ], [ %spec.select, %19 ]
  call void @llvm.lifetime.end.p0(i64 4, ptr nonnull %5) #9
  call void @llvm.lifetime.end.p0(i64 4, ptr nonnull %4) #9
  ret i32 %.0
}